target datalayout = "e-m:e-p270:32:32-p271:32:32-p272:64:64-i64:64-i128:128-f80:128-n8:16:32:64-S128"
target triple = "x86_64-pc-linux-gnu"

%struct.tag_ALSA_MIDIDeviceDescription = type { i32, i32, i32, ptr, ptr }
%struct.tag_MidiDeviceHandle = type { ptr, ptr, ptr, i32, i64 }
%struct.timeval = type { i64, i64 }

; Function Attrs: nounwind uwtable
define hidden void @freeMIDIDeviceDescription(ptr noundef %0) #0 {
  %2 = alloca ptr, align 8
  store ptr %0, ptr %2, align 8
  %3 = load ptr, ptr %2, align 8
  %4 = getelementptr inbounds %struct.tag_ALSA_MIDIDeviceDescription, ptr %3, i32 0, i32 3
  %5 = load ptr, ptr %4, align 8
  %6 = icmp ne ptr %5, null
  br i1 %6, label %7, label %11

7:                                                ; preds = %1
  %8 = load ptr, ptr %2, align 8
  %9 = getelementptr inbounds %struct.tag_ALSA_MIDIDeviceDescription, ptr %8, i32 0, i32 3
  %10 = load ptr, ptr %9, align 8
  call void @free(ptr noundef %10) #5
  br label %11

11:                                               ; preds = %7, %1
  %12 = load ptr, ptr %2, align 8
  %13 = getelementptr inbounds %struct.tag_ALSA_MIDIDeviceDescription, ptr %12, i32 0, i32 4
  %14 = load ptr, ptr %13, align 8
  %15 = icmp ne ptr %14, null
  br i1 %15, label %16, label %20

16:                                               ; preds = %11
  %17 = load ptr, ptr %2, align 8
  %18 = getelementptr inbounds %struct.tag_ALSA_MIDIDeviceDescription, ptr %17, i32 0, i32 4
  %19 = load ptr, ptr %18, align 8
  call void @free(ptr noundef %19) #5
  br label %20

20:                                               ; preds = %16, %11
  ret void
}

; Function Attrs: nounwind uwtable
define internal i32 @getMIDIDeviceDescriptionByIndex(i32 noundef %0, ptr noundef %1) #0 {
  %3 = alloca i32, align 4
  %4 = alloca ptr, align 8
  store i32 %0, ptr %3, align 4
  store ptr %1, ptr %4, align 8
  call void (...) @initAlsaSupport()
  %5 = load i32, ptr %3, align 4
  %6 = load ptr, ptr %4, align 8
  %7 = call i32 @iterateRawmidiDevices(i32 noundef %5, ptr noundef @deviceInfoIterator, ptr noundef %6)
  %8 = load ptr, ptr %4, align 8
  %9 = getelementptr inbounds %struct.tag_ALSA_MIDIDeviceDescription, ptr %8, i32 0, i32 0
  %10 = load i32, ptr %9, align 8
  %11 = icmp eq i32 %10, 0
  %12 = select i1 %11, i32 0, i32 -11112
  ret i32 %12
}

; Function Attrs: nounwind uwtable
define hidden i32 @initMIDIDeviceDescription(ptr noundef %0, i32 noundef %1) #0 {
  %3 = alloca ptr, align 8
  %4 = alloca i32, align 4
  %5 = alloca i32, align 4
  store ptr %0, ptr %3, align 8
  store i32 %1, ptr %4, align 4
  store i32 0, ptr %5, align 4
  %6 = load i32, ptr %4, align 4
  %7 = load ptr, ptr %3, align 8
  %8 = getelementptr inbounds %struct.tag_ALSA_MIDIDeviceDescription, ptr %7, i32 0, i32 0
  store i32 %6, ptr %8, align 8
  %9 = load ptr, ptr %3, align 8
  %10 = getelementptr inbounds %struct.tag_ALSA_MIDIDeviceDescription, ptr %9, i32 0, i32 1
  store i32 200, ptr %10, align 4
  %11 = load ptr, ptr %3, align 8
  %12 = getelementptr inbounds %struct.tag_ALSA_MIDIDeviceDescription, ptr %11, i32 0, i32 1
  %13 = load i32, ptr %12, align 4
  %14 = add nsw i32 %13, 1
  %15 = sext i32 %14 to i64
  %16 = call noalias ptr @calloc(i64 noundef %15, i64 noundef 1) #6
  %17 = load ptr, ptr %3, align 8
  %18 = getelementptr inbounds %struct.tag_ALSA_MIDIDeviceDescription, ptr %17, i32 0, i32 3
  store ptr %16, ptr %18, align 8
  %19 = load ptr, ptr %3, align 8
  %20 = getelementptr inbounds %struct.tag_ALSA_MIDIDeviceDescription, ptr %19, i32 0, i32 1
  %21 = load i32, ptr %20, align 4
  %22 = add nsw i32 %21, 1
  %23 = sext i32 %22 to i64
  %24 = call noalias ptr @calloc(i64 noundef %23, i64 noundef 1) #6
  %25 = load ptr, ptr %3, align 8
  %26 = getelementptr inbounds %struct.tag_ALSA_MIDIDeviceDescription, ptr %25, i32 0, i32 4
  store ptr %24, ptr %26, align 8
  %27 = load ptr, ptr %3, align 8
  %28 = getelementptr inbounds %struct.tag_ALSA_MIDIDeviceDescription, ptr %27, i32 0, i32 3
  %29 = load ptr, ptr %28, align 8
  %30 = icmp ne ptr %29, null
  br i1 %30, label %31, label %36

31:                                               ; preds = %2
  %32 = load ptr, ptr %3, align 8
  %33 = getelementptr inbounds %struct.tag_ALSA_MIDIDeviceDescription, ptr %32, i32 0, i32 4
  %34 = load ptr, ptr %33, align 8
  %35 = icmp ne ptr %34, null
  br i1 %35, label %37, label %36

36:                                               ; preds = %31, %2
  store i32 -11115, ptr %5, align 4
  br label %37

37:                                               ; preds = %36, %31
  %38 = load i32, ptr %5, align 4
  ret i32 %38
}

; Function Attrs: nounwind uwtable
define internal i64 @getTimeInMicroseconds() #0 {
  %1 = alloca %struct.timeval, align 8
  %2 = call i32 @gettimeofday(ptr noundef %1, ptr noundef null) #5
  %3 = getelementptr inbounds %struct.timeval, ptr %1, i32 0, i32 0
  %4 = load i64, ptr %3, align 8
  %5 = mul i64 %4, 1000000
  %6 = getelementptr inbounds %struct.timeval, ptr %1, i32 0, i32 1
  %7 = load i64, ptr %6, align 8
  %8 = add i64 %5, %7
  ret i64 %8
}

; Function Attrs: nounwind uwtable
define internal i32 @getMidiDeviceID(i32 noundef %0, i32 noundef %1, ptr noundef %2) #0 {
  %4 = alloca i32, align 4
  %5 = alloca i32, align 4
  %6 = alloca ptr, align 8
  %7 = alloca %struct.tag_ALSA_MIDIDeviceDescription, align 8
  %8 = alloca i32, align 4
  store i32 %0, ptr %4, align 4
  store i32 %1, ptr %5, align 4
  store ptr %2, ptr %6, align 8
  %9 = load i32, ptr %5, align 4
  %10 = call i32 @initMIDIDeviceDescription(ptr noundef %7, i32 noundef %9)
  store i32 %10, ptr %8, align 4
  %11 = load i32, ptr %8, align 4
  %12 = icmp eq i32 %11, 0
  br i1 %12, label %13, label %23

13:                                               ; preds = %3
  %14 = load i32, ptr %4, align 4
  %15 = call i32 @getMIDIDeviceDescriptionByIndex(i32 noundef %14, ptr noundef %7)
  store i32 %15, ptr %8, align 4
  %16 = load i32, ptr %8, align 4
  %17 = icmp eq i32 %16, 0
  br i1 %17, label %18, label %22

18:                                               ; preds = %13
  %19 = getelementptr inbounds %struct.tag_ALSA_MIDIDeviceDescription, ptr %7, i32 0, i32 2
  %20 = load i32, ptr %19, align 8
  %21 = load ptr, ptr %6, align 8
  store i32 %20, ptr %21, align 4
  br label %22

22:                                               ; preds = %18, %13
  br label %23

23:                                               ; preds = %22, %3
  call void @freeMIDIDeviceDescription(ptr noundef %7)
  %24 = load i32, ptr %8, align 4
  ret i32 %24
}

; Function Attrs: nounwind uwtable
define hidden i32 @openMidiDevice(i32 noundef %0, i32 noundef %1, ptr noundef %2) #0 {
  %4 = alloca i32, align 4
  %5 = alloca i32, align 4
  %6 = alloca i32, align 4
  %7 = alloca ptr, align 8
  %8 = alloca ptr, align 8
  %9 = alloca ptr, align 8
  %10 = alloca i32, align 4
  %11 = alloca i32, align 4
  %12 = alloca [100 x i8], align 16
  %13 = alloca i32, align 4
  store i32 %0, ptr %5, align 4
  store i32 %1, ptr %6, align 4
  store ptr %2, ptr %7, align 8
  store ptr null, ptr %9, align 8
  store i32 0, ptr %11, align 4
  store i32 0, ptr %13, align 4
  %14 = call noalias ptr @calloc(i64 noundef 1, i64 noundef 40) #6
  %15 = load ptr, ptr %7, align 8
  store ptr %14, ptr %15, align 8
  %16 = load ptr, ptr %7, align 8
  %17 = load ptr, ptr %16, align 8
  %18 = icmp ne ptr %17, null
  br i1 %18, label %20, label %19

19:                                               ; preds = %3
  store i32 -11115, ptr %4, align 4
  br label %93

20:                                               ; preds = %3
  %21 = load i32, ptr %5, align 4
  %22 = load i32, ptr %6, align 4
  %23 = call i32 @getMidiDeviceID(i32 noundef %21, i32 noundef %22, ptr noundef %11)
  store i32 %23, ptr %10, align 4
  %24 = getelementptr inbounds [100 x i8], ptr %12, i64 0, i64 0
  %25 = load i32, ptr %11, align 4
  %26 = load i32, ptr %13, align 4
  call void @getDeviceStringFromDeviceID(ptr noundef %24, i64 noundef 100, i32 noundef %25, i32 noundef %26, i32 noundef 1)
  %27 = load i32, ptr %5, align 4
  %28 = icmp eq i32 %27, 1
  br i1 %28, label %29, label %32

29:                                               ; preds = %20
  %30 = getelementptr inbounds [100 x i8], ptr %12, i64 0, i64 0
  %31 = call i32 @snd_rawmidi_open(ptr noundef %8, ptr noundef null, ptr noundef %30, i32 noundef 2)
  store i32 %31, ptr %10, align 4
  br label %40

32:                                               ; preds = %20
  %33 = load i32, ptr %5, align 4
  %34 = icmp eq i32 %33, 0
  br i1 %34, label %35, label %38

35:                                               ; preds = %32
  %36 = getelementptr inbounds [100 x i8], ptr %12, i64 0, i64 0
  %37 = call i32 @snd_rawmidi_open(ptr noundef null, ptr noundef %8, ptr noundef %36, i32 noundef 2)
  store i32 %37, ptr %10, align 4
  br label %39

38:                                               ; preds = %32
  store i32 -11114, ptr %10, align 4
  br label %39

39:                                               ; preds = %38, %35
  br label %40

40:                                               ; preds = %39, %29
  %41 = load i32, ptr %10, align 4
  %42 = icmp slt i32 %41, 0
  br i1 %42, label %43, label %48

43:                                               ; preds = %40
  %44 = load ptr, ptr %7, align 8
  %45 = load ptr, ptr %44, align 8
  call void @free(ptr noundef %45) #5
  %46 = load ptr, ptr %7, align 8
  store ptr null, ptr %46, align 8
  %47 = load i32, ptr %10, align 4
  store i32 %47, ptr %4, align 4
  br label %93

48:                                               ; preds = %40
  %49 = load i32, ptr %5, align 4
  %50 = icmp eq i32 %49, 0
  br i1 %50, label %51, label %64

51:                                               ; preds = %48
  %52 = load ptr, ptr %8, align 8
  %53 = call i32 @snd_rawmidi_nonblock(ptr noundef %52, i32 noundef 0)
  store i32 %53, ptr %10, align 4
  %54 = load i32, ptr %10, align 4
  %55 = icmp slt i32 %54, 0
  br i1 %55, label %56, label %63

56:                                               ; preds = %51
  %57 = load ptr, ptr %8, align 8
  %58 = call i32 @snd_rawmidi_close(ptr noundef %57)
  %59 = load ptr, ptr %7, align 8
  %60 = load ptr, ptr %59, align 8
  call void @free(ptr noundef %60) #5
  %61 = load ptr, ptr %7, align 8
  store ptr null, ptr %61, align 8
  %62 = load i32, ptr %10, align 4
  store i32 %62, ptr %4, align 4
  br label %93

63:                                               ; preds = %51
  br label %64

64:                                               ; preds = %63, %48
  %65 = load i32, ptr %5, align 4
  %66 = icmp eq i32 %65, 1
  br i1 %66, label %67, label %79

67:                                               ; preds = %64
  %68 = call i32 @snd_midi_event_new(i64 noundef 2048, ptr noundef %9)
  store i32 %68, ptr %10, align 4
  %69 = load i32, ptr %10, align 4
  %70 = icmp slt i32 %69, 0
  br i1 %70, label %71, label %78

71:                                               ; preds = %67
  %72 = load ptr, ptr %8, align 8
  %73 = call i32 @snd_rawmidi_close(ptr noundef %72)
  %74 = load ptr, ptr %7, align 8
  %75 = load ptr, ptr %74, align 8
  call void @free(ptr noundef %75) #5
  %76 = load ptr, ptr %7, align 8
  store ptr null, ptr %76, align 8
  %77 = load i32, ptr %10, align 4
  store i32 %77, ptr %4, align 4
  br label %93

78:                                               ; preds = %67
  br label %79

79:                                               ; preds = %78, %64
  %80 = load ptr, ptr %8, align 8
  %81 = load ptr, ptr %7, align 8
  %82 = load ptr, ptr %81, align 8
  %83 = getelementptr inbounds %struct.tag_MidiDeviceHandle, ptr %82, i32 0, i32 0
  store ptr %80, ptr %83, align 8
  %84 = call i64 @getTimeInMicroseconds()
  %85 = load ptr, ptr %7, align 8
  %86 = load ptr, ptr %85, align 8
  %87 = getelementptr inbounds %struct.tag_MidiDeviceHandle, ptr %86, i32 0, i32 4
  store i64 %84, ptr %87, align 8
  %88 = load ptr, ptr %9, align 8
  %89 = load ptr, ptr %7, align 8
  %90 = load ptr, ptr %89, align 8
  %91 = getelementptr inbounds %struct.tag_MidiDeviceHandle, ptr %90, i32 0, i32 2
  store ptr %88, ptr %91, align 8
  %92 = load i32, ptr %10, align 4
  store i32 %92, ptr %4, align 4
  br label %93

93:                                               ; preds = %79, %71, %56, %43, %19
  %94 = load i32, ptr %4, align 4
  ret i32 %94
}