; Function Attrs: nounwind uwtable
define hidden i32 @openMidiDevice(i32 noundef %0, i32 noundef %1, ptr nocapture noundef %2) local_unnamed_addr #0 {
  %4 = alloca %struct.timeval, align 8
  %5 = alloca %struct.tag_ALSA_MIDIDeviceDescription, align 8
  %6 = alloca ptr, align 8
  %7 = alloca ptr, align 8
  %8 = alloca [100 x i8], align 16
  store ptr null, ptr %7, align 8
  %9 = tail call noalias dereferenceable_or_null(40) ptr @calloc(i64 noundef 1, i64 noundef 40) #13
  store ptr %9, ptr %2, align 8
  %.not = icmp eq ptr %9, null
  br i1 %.not, label %63, label %10

10:                                               ; preds = %3
  call void @llvm.lifetime.start.p0(i64 32, ptr nonnull %5)
  store i32 %1, ptr %5, align 8
  %11 = getelementptr inbounds i8, ptr %5, i64 4
  store i32 200, ptr %11, align 4
  %12 = tail call noalias dereferenceable_or_null(201) ptr @calloc(i64 noundef 201, i64 noundef 1) #13
  %13 = getelementptr inbounds i8, ptr %5, i64 16
  store ptr %12, ptr %13, align 8
  %14 = tail call noalias dereferenceable_or_null(201) ptr @calloc(i64 noundef 201, i64 noundef 1) #13
  %15 = getelementptr inbounds i8, ptr %5, i64 24
  store ptr %14, ptr %15, align 8
  %.not.i.i = icmp ne ptr %12, null
  %.not9.i.i = icmp ne ptr %14, null
  %or.cond.i.not.i = and i1 %.not.i.i, %.not9.i.i
  br i1 %or.cond.i.not.i, label %16, label %23

16:                                               ; preds = %10
  tail call void (...) @initAlsaSupport() #12
  %17 = call fastcc i32 @iterateRawmidiDevices(i32 noundef %0, ptr noundef nonnull @deviceInfoIterator, ptr noundef nonnull %5)
  %18 = load i32, ptr %5, align 8
  %19 = icmp eq i32 %18, 0
  br i1 %19, label %20, label %23

20:                                               ; preds = %16
  %21 = getelementptr inbounds i8, ptr %5, i64 8
  %22 = load i32, ptr %21, align 8
  br label %23

23:                                               ; preds = %20, %16, %10
  %.031 = phi i32 [ %22, %20 ], [ 0, %16 ], [ 0, %10 ]
  %24 = load ptr, ptr %13, align 8
  %.not.i7.i = icmp eq ptr %24, null
  br i1 %.not.i7.i, label %26, label %25

25:                                               ; preds = %23
  call void @free(ptr noundef nonnull %24) #12
  br label %26

26:                                               ; preds = %25, %23
  %27 = load ptr, ptr %15, align 8
  %.not5.i.i = icmp eq ptr %27, null
  br i1 %.not5.i.i, label %getMidiDeviceID.exit, label %28

28:                                               ; preds = %26
  call void @free(ptr noundef nonnull %27) #12
  br label %getMidiDeviceID.exit

getMidiDeviceID.exit:                             ; preds = %26, %28
  call void @llvm.lifetime.end.p0(i64 32, ptr nonnull %5)
  call void @getDeviceStringFromDeviceID(ptr noundef nonnull %8, i64 noundef 100, i32 noundef %.031, i32 noundef 0, i32 noundef 1) #12
  switch i32 %0, label %.thread [
    i32 1, label %.thread34
    i32 0, label %29
  ]

29:                                               ; preds = %getMidiDeviceID.exit
  %30 = call i32 @snd_rawmidi_open(ptr noundef null, ptr noundef nonnull %6, ptr noundef nonnull %8, i32 noundef 2) #12
  %31 = icmp slt i32 %30, 0
  br i1 %31, label %.thread, label %35

.thread34:                                        ; preds = %getMidiDeviceID.exit
  %32 = call i32 @snd_rawmidi_open(ptr noundef nonnull %6, ptr noundef null, ptr noundef nonnull %8, i32 noundef 2) #12
  %33 = icmp slt i32 %32, 0
  br i1 %33, label %.thread, label %43

.thread:                                          ; preds = %getMidiDeviceID.exit, %.thread34, %29
  %.02533 = phi i32 [ %30, %29 ], [ %32, %.thread34 ], [ -11114, %getMidiDeviceID.exit ]
  %34 = load ptr, ptr %2, align 8
  call void @free(ptr noundef %34) #12
  store ptr null, ptr %2, align 8
  br label %63

35:                                               ; preds = %29
  %36 = load ptr, ptr %6, align 8
  %37 = call i32 @snd_rawmidi_nonblock(ptr noundef %36, i32 noundef 0) #12
  %38 = icmp slt i32 %37, 0
  br i1 %38, label %39, label %.thread39

39:                                               ; preds = %35
  %40 = load ptr, ptr %6, align 8
  %41 = call i32 @snd_rawmidi_close(ptr noundef %40) #12
  %42 = load ptr, ptr %2, align 8
  call void @free(ptr noundef %42) #12
  store ptr null, ptr %2, align 8
  br label %63

43:                                               ; preds = %.thread34
  %44 = call i32 @snd_midi_event_new(i64 noundef 2048, ptr noundef nonnull %7) #12
  %45 = icmp slt i32 %44, 0
  br i1 %45, label %46, label %.thread39

46:                                               ; preds = %43
  %47 = load ptr, ptr %6, align 8
  %48 = call i32 @snd_rawmidi_close(ptr noundef %47) #12
  %49 = load ptr, ptr %2, align 8
  call void @free(ptr noundef %49) #12
  store ptr null, ptr %2, align 8
  br label %63

.thread39:                                        ; preds = %35, %43
  %.2 = phi i32 [ %44, %43 ], [ %37, %35 ]
  %50 = load ptr, ptr %6, align 8
  %51 = load ptr, ptr %2, align 8
  store ptr %50, ptr %51, align 8
  call void @llvm.lifetime.start.p0(i64 16, ptr nonnull %4)
  %52 = call i32 @gettimeofday(ptr noundef nonnull %4, ptr noundef null) #12
  %53 = load i64, ptr %4, align 8
  %54 = mul i64 %53, 1000000
  %55 = getelementptr inbounds i8, ptr %4, i64 8
  %56 = load i64, ptr %55, align 8
  %57 = add i64 %54, %56
  call void @llvm.lifetime.end.p0(i64 16, ptr nonnull %4)
  %58 = load ptr, ptr %2, align 8
  %59 = getelementptr inbounds i8, ptr %58, i64 32
  store i64 %57, ptr %59, align 8
  %60 = load ptr, ptr %7, align 8
  %61 = load ptr, ptr %2, align 8
  %62 = getelementptr inbounds i8, ptr %61, i64 16
  store ptr %60, ptr %62, align 8
  br label %63

63:                                               ; preds = %3, %.thread39, %46, %39, %.thread
  %.0 = phi i32 [ %.02533, %.thread ], [ %37, %39 ], [ %44, %46 ], [ %.2, %.thread39 ], [ -11115, %3 ]
  ret i32 %.0
}